target datalayout = "e-m:e-p270:32:32-p271:32:32-p272:64:64-i64:64-i128:128-f80:128-n8:16:32:64-S128"
target triple = "x86_64-pc-linux-gnu"

%class.StringTableEntry = type <{ %"class.std::reference_wrapper", i32, [4 x i8] }>
%"class.std::reference_wrapper" = type { ptr }
%class.anon.30 = type { i8 }

@.str.1 = private unnamed_addr constant [125 x i8] c"generated/home/dtcxzyw/WorkSpace/Projects/compilers/llvm-opt-benchmark/bench/gromacs/gromacs/src/gromacs/topology/symtab.cpp\00", align 1
@.str.7 = private unnamed_addr constant [23 x i8] c"!serializer->reading()\00", align 1
@.str.11 = private unnamed_addr constant [53 x i8] c"Can not use reading serializer to write string index\00", align 1
@"__PRETTY_FUNCTION__._ZZNK16StringTableEntry9serializeEPN3gmx11ISerializerEENK3$_0clEv" = private unnamed_addr constant [92 x i8] c"auto StringTableEntry::serialize(gmx::ISerializer *)::(anonymous class)::operator()() const\00", align 1

; Function Attrs: inlinehint mustprogress uwtable
define internal void @"_ZZNK16StringTableEntry9serializeEPN3gmx11ISerializerEENK3$_0clEv"(ptr noundef nonnull align 1 dereferenceable(1) %0) #13 align 2 {
  %2 = alloca ptr, align 8
  store ptr %0, ptr %2, align 8, !tbaa !98
  call void @_ZN3gmx8internal13assertHandlerEPKcS2_S2_S2_i(ptr noundef @.str.7, ptr noundef @.str.11, ptr noundef @"__PRETTY_FUNCTION__._ZZNK16StringTableEntry9serializeEPN3gmx11ISerializerEENK3$_0clEv", ptr noundef @.str.1, i32 noundef 153) #20
  unreachable
}

; Function Attrs: mustprogress uwtable
define void @_ZNK16StringTableEntry9serializeEPN3gmx11ISerializerE(ptr noundef nonnull align 8 dereferenceable(12) %0, ptr noundef %1) #0 align 2 {
  %3 = alloca ptr, align 8
  %4 = alloca ptr, align 8
  %5 = alloca %class.anon.30, align 1
  %6 = alloca i32, align 4
  store ptr %0, ptr %3, align 8, !tbaa !36
  store ptr %1, ptr %4, align 8, !tbaa !271
  %7 = load ptr, ptr %3, align 8
  %8 = load ptr, ptr %4, align 8, !tbaa !271
  %9 = load ptr, ptr %8, align 8, !tbaa !155
  %10 = getelementptr inbounds ptr, ptr %9, i64 2
  %11 = load ptr, ptr %10, align 8
  %12 = call noundef zeroext i1 %11(ptr noundef nonnull align 8 dereferenceable(8) %8)
  call void @llvm.lifetime.start.p0(i64 1, ptr %5) #18
  br i1 %12, label %14, label %13

13:                                               ; preds = %2
  br label %15

14:                                               ; preds = %2
  call void @"_ZZNK16StringTableEntry9serializeEPN3gmx11ISerializerEENK3$_0clEv"(ptr noundef nonnull align 1 dereferenceable(1) %5)
  br label %15

15:                                               ; preds = %14, %13
  call void @llvm.lifetime.end.p0(i64 1, ptr %5) #18
  call void @llvm.lifetime.start.p0(i64 4, ptr %6) #18
  %16 = getelementptr inbounds nuw %class.StringTableEntry, ptr %7, i32 0, i32 1
  %17 = load i32, ptr %16, align 8, !tbaa !38
  store i32 %17, ptr %6, align 4, !tbaa !11
  %18 = load ptr, ptr %4, align 8, !tbaa !271
  %19 = load ptr, ptr %18, align 8, !tbaa !155
  %20 = getelementptr inbounds ptr, ptr %19, i64 7
  %21 = load ptr, ptr %20, align 8
  call void %21(ptr noundef nonnull align 8 dereferenceable(8) %18, ptr noundef %6)
  call void @llvm.lifetime.end.p0(i64 4, ptr %6) #18
  ret void
}