; Function Attrs: mustprogress uwtable
define void @_ZNK16StringTableEntry9serializeEPN3gmx11ISerializerE(ptr noundef nonnull readonly align 8 captures(none) dereferenceable(12) %0, ptr noundef %1) local_unnamed_addr #0 align 2 {
  %3 = alloca i32, align 4
  %4 = load ptr, ptr %1, align 8, !tbaa !49
  %5 = getelementptr inbounds nuw i8, ptr %4, i64 16
  %6 = load ptr, ptr %5, align 8
  %7 = tail call noundef zeroext i1 %6(ptr noundef nonnull align 8 dereferenceable(8) %1)
  br i1 %7, label %8, label %9

8:                                                ; preds = %2
  tail call void @_ZN3gmx8internal13assertHandlerEPKcS2_S2_S2_i(ptr noundef nonnull @.str.7, ptr noundef nonnull @.str.11, ptr noundef nonnull @"__PRETTY_FUNCTION__._ZZNK16StringTableEntry9serializeEPN3gmx11ISerializerEENK3$_0clEv", ptr noundef nonnull @.str.1, i32 noundef 153) #29
  unreachable

9:                                                ; preds = %2
  call void @llvm.lifetime.start.p0(i64 4, ptr nonnull %3) #25
  %10 = getelementptr inbounds nuw i8, ptr %0, i64 8
  %11 = load i32, ptr %10, align 8, !tbaa !93
  store i32 %11, ptr %3, align 4, !tbaa !34
  %12 = load ptr, ptr %1, align 8, !tbaa !49
  %13 = getelementptr inbounds nuw i8, ptr %12, i64 56
  %14 = load ptr, ptr %13, align 8
  call void %14(ptr noundef nonnull align 8 dereferenceable(8) %1, ptr noundef nonnull %3)
  call void @llvm.lifetime.end.p0(i64 4, ptr nonnull %3) #25
  ret void
}